; Function Attrs: mustprogress uwtable
define dso_local void @_ZNK8FileLine9warnOtherB5cxx11Ev(ptr dead_on_unwind noalias writable sret(%"class.std::__cxx11::basic_string") align 8 %0, ptr noundef nonnull align 8 dereferenceable(40) %1) #3 align 2 personality ptr @__gxx_personality_v0 {
  %3 = alloca %"class.std::__cxx11::basic_string", align 8
  %4 = alloca %"class.std::__cxx11::basic_string", align 8
  %5 = alloca %"class.std::__cxx11::basic_string", align 8
  %6 = getelementptr inbounds i8, ptr %1, i64 16
  %7 = load i32, ptr %6, align 8
  %.not = icmp eq i32 %7, 0
  %8 = load atomic i8, ptr @_ZGVZN7V3Error1sEvE3s_s acquire, align 8
  %9 = icmp eq i8 %8, 0
  br i1 %.not, label %41, label %10

10:                                               ; preds = %2
  br i1 %9, label %11, label %_ZN7V3Error1sEv.exit, !prof !90

11:                                               ; preds = %10
  %12 = tail call i32 @__cxa_guard_acquire(ptr nonnull @_ZGVZN7V3Error1sEvE3s_s) #20
  %.not.i = icmp eq i32 %12, 0
  br i1 %.not.i, label %_ZN7V3Error1sEv.exit, label %13

13:                                               ; preds = %11
  invoke void @_ZN14V3ErrorGuardedC2Ev(ptr noundef nonnull align 8 dereferenceable(752) @_ZZN7V3Error1sEvE3s_s)
          to label %14 unwind label %16

14:                                               ; preds = %13
  %15 = tail call i32 @__cxa_atexit(ptr nonnull @_ZN14V3ErrorGuardedD2Ev, ptr nonnull @_ZZN7V3Error1sEvE3s_s, ptr nonnull @__dso_handle) #20
  tail call void @__cxa_guard_release(ptr nonnull @_ZGVZN7V3Error1sEvE3s_s) #20
  br label %_ZN7V3Error1sEv.exit

common.resume:                                    ; preds = %47, %40, %16
  %common.resume.op = phi { ptr, i32 } [ %17, %16 ], [ %.pn.pn, %40 ], [ %48, %47 ]
  resume { ptr, i32 } %common.resume.op

16:                                               ; preds = %13
  %17 = landingpad { ptr, i32 }
          cleanup
  tail call void @__cxa_guard_abort(ptr nonnull @_ZGVZN7V3Error1sEvE3s_s) #20
  br label %common.resume

_ZN7V3Error1sEv.exit:                             ; preds = %10, %11, %14
  call void @_ZN14V3ErrorGuarded8warnMoreB5cxx11Ev(ptr dead_on_unwind nonnull writable sret(%"class.std::__cxx11::basic_string") align 8 %4, ptr noundef nonnull align 8 dereferenceable(752) @_ZZN7V3Error1sEvE3s_s)
  invoke void @_ZNK8FileLine5asciiB5cxx11Ev(ptr dead_on_unwind nonnull writable sret(%"class.std::__cxx11::basic_string") align 8 %5, ptr noundef nonnull align 8 dereferenceable(40) %1)
          to label %18 unwind label %33

18:                                               ; preds = %_ZN7V3Error1sEv.exit
  %19 = call noundef i64 @_ZNKSt7__cxx1112basic_stringIcSt11char_traitsIcESaIcEE4sizeEv(ptr noundef nonnull align 8 dereferenceable(32) %4) #20, !noalias !164
  %20 = call noundef i64 @_ZNKSt7__cxx1112basic_stringIcSt11char_traitsIcESaIcEE4sizeEv(ptr noundef nonnull align 8 dereferenceable(32) %5) #20, !noalias !164
  %21 = add i64 %20, %19
  %22 = call noundef i64 @_ZNKSt7__cxx1112basic_stringIcSt11char_traitsIcESaIcEE8capacityEv(ptr noundef nonnull align 8 dereferenceable(32) %4) #20, !noalias !164
  %23 = icmp ugt i64 %21, %22
  br i1 %23, label %24, label %28

24:                                               ; preds = %18
  %25 = call noundef i64 @_ZNKSt7__cxx1112basic_stringIcSt11char_traitsIcESaIcEE8capacityEv(ptr noundef nonnull align 8 dereferenceable(32) %5) #20, !noalias !164
  %.not.i6 = icmp ugt i64 %21, %25
  br i1 %.not.i6, label %28, label %26

26:                                               ; preds = %24
  %27 = invoke noundef nonnull align 8 dereferenceable(32) ptr @_ZNSt7__cxx1112basic_stringIcSt11char_traitsIcESaIcEE6insertEmRKS4_(ptr noundef nonnull align 8 dereferenceable(32) %5, i64 noundef 0, ptr noundef nonnull align 8 dereferenceable(32) %4)
          to label %30 unwind label %35

28:                                               ; preds = %24, %18
  %29 = invoke noundef nonnull align 8 dereferenceable(32) ptr @_ZNSt7__cxx1112basic_stringIcSt11char_traitsIcESaIcEE6appendERKS4_(ptr noundef nonnull align 8 dereferenceable(32) %4, ptr noundef nonnull align 8 dereferenceable(32) %5)
          to label %30 unwind label %35

30:                                               ; preds = %26, %28
  %.sink.i = phi ptr [ %27, %26 ], [ %29, %28 ]
  call void @_ZNSt7__cxx1112basic_stringIcSt11char_traitsIcESaIcEEC1EOS4_(ptr noundef nonnull align 8 dereferenceable(32) %3, ptr noundef nonnull align 8 dereferenceable(32) %.sink.i) #20
  %31 = invoke noundef nonnull align 8 dereferenceable(32) ptr @_ZNSt7__cxx1112basic_stringIcSt11char_traitsIcESaIcEE6appendEPKc(ptr noundef nonnull align 8 dereferenceable(32) %3, ptr noundef nonnull @.str.46)
          to label %32 unwind label %37

32:                                               ; preds = %30
  call void @_ZNSt7__cxx1112basic_stringIcSt11char_traitsIcESaIcEEC1EOS4_(ptr noundef nonnull align 8 dereferenceable(32) %0, ptr noundef nonnull align 8 dereferenceable(32) %31) #20
  call void @_ZNSt7__cxx1112basic_stringIcSt11char_traitsIcESaIcEED1Ev(ptr noundef nonnull align 8 dereferenceable(32) %3) #20
  call void @_ZNSt7__cxx1112basic_stringIcSt11char_traitsIcESaIcEED1Ev(ptr noundef nonnull align 8 dereferenceable(32) %5) #20
  call void @_ZNSt7__cxx1112basic_stringIcSt11char_traitsIcESaIcEED1Ev(ptr noundef nonnull align 8 dereferenceable(32) %4) #20
  br label %49

33:                                               ; preds = %_ZN7V3Error1sEv.exit
  %34 = landingpad { ptr, i32 }
          cleanup
  br label %40

35:                                               ; preds = %28, %26
  %36 = landingpad { ptr, i32 }
          cleanup
  br label %39

37:                                               ; preds = %30
  %38 = landingpad { ptr, i32 }
          cleanup
  call void @_ZNSt7__cxx1112basic_stringIcSt11char_traitsIcESaIcEED1Ev(ptr noundef nonnull align 8 dereferenceable(32) %3) #20
  br label %39

39:                                               ; preds = %37, %35
  %.pn = phi { ptr, i32 } [ %38, %37 ], [ %36, %35 ]
  call void @_ZNSt7__cxx1112basic_stringIcSt11char_traitsIcESaIcEED1Ev(ptr noundef nonnull align 8 dereferenceable(32) %5) #20
  br label %40

40:                                               ; preds = %39, %33
  %.pn.pn = phi { ptr, i32 } [ %.pn, %39 ], [ %34, %33 ]
  call void @_ZNSt7__cxx1112basic_stringIcSt11char_traitsIcESaIcEED1Ev(ptr noundef nonnull align 8 dereferenceable(32) %4) #20
  br label %common.resume

41:                                               ; preds = %2
  br i1 %9, label %42, label %_ZN7V3Error1sEv.exit10, !prof !90

42:                                               ; preds = %41
  %43 = tail call i32 @__cxa_guard_acquire(ptr nonnull @_ZGVZN7V3Error1sEvE3s_s) #20
  %.not.i9 = icmp eq i32 %43, 0
  br i1 %.not.i9, label %_ZN7V3Error1sEv.exit10, label %44

44:                                               ; preds = %42
  invoke void @_ZN14V3ErrorGuardedC2Ev(ptr noundef nonnull align 8 dereferenceable(752) @_ZZN7V3Error1sEvE3s_s)
          to label %45 unwind label %47

45:                                               ; preds = %44
  %46 = tail call i32 @__cxa_atexit(ptr nonnull @_ZN14V3ErrorGuardedD2Ev, ptr nonnull @_ZZN7V3Error1sEvE3s_s, ptr nonnull @__dso_handle) #20
  tail call void @__cxa_guard_release(ptr nonnull @_ZGVZN7V3Error1sEvE3s_s) #20
  br label %_ZN7V3Error1sEv.exit10

47:                                               ; preds = %44
  %48 = landingpad { ptr, i32 }
          cleanup
  tail call void @__cxa_guard_abort(ptr nonnull @_ZGVZN7V3Error1sEvE3s_s) #20
  br label %common.resume

_ZN7V3Error1sEv.exit10:                           ; preds = %41, %42, %45
  tail call void @_ZN14V3ErrorGuarded8warnMoreB5cxx11Ev(ptr dead_on_unwind writable sret(%"class.std::__cxx11::basic_string") align 8 %0, ptr noundef nonnull align 8 dereferenceable(752) @_ZZN7V3Error1sEvE3s_s)
  br label %49

49:                                               ; preds = %_ZN7V3Error1sEv.exit10, %32
  ret void
}